target datalayout = "e-m:e-p270:32:32-p271:32:32-p272:64:64-i64:64-i128:128-f80:128-n8:16:32:64-S128"
target triple = "x86_64-pc-linux-gnu"

%"class.clang::LangOptionsBase" = type <{ i64, i64, i64, i64, i64, i64, i64, i64, i64, i64, i64, i64, i64, i64, i64, i64, i64, i64, i64, i64, i64, i64, i64, i64, i64, i16, [2 x i8] }>

; Function Attrs: mustprogress nounwind uwtable
define dso_local noundef i32 @_ZNK5clang11LangOptions26getOpenCLCompatibleVersionEv(ptr noundef nonnull align 8 dereferenceable(841) %0) #0 align 2 {
  %2 = alloca i32, align 4
  %3 = alloca ptr, align 8
  store ptr %0, ptr %3, align 8
  %4 = load ptr, ptr %3, align 8
  %5 = getelementptr inbounds nuw %"class.clang::LangOptionsBase", ptr %4, i32 0, i32 6
  %6 = load i64, ptr %5, align 8
  %7 = lshr i64 %6, 32
  %8 = and i64 %7, 1
  %9 = trunc i64 %8 to i32
  %10 = icmp ne i32 %9, 0
  br i1 %10, label %16, label %11

11:                                               ; preds = %1
  %12 = getelementptr inbounds nuw %"class.clang::LangOptionsBase", ptr %4, i32 0, i32 6
  %13 = load i64, ptr %12, align 8
  %14 = and i64 %13, 4294967295
  %15 = trunc i64 %14 to i32
  store i32 %15, ptr %2, align 4
  br label %31

16:                                               ; preds = %1
  %17 = getelementptr inbounds nuw %"class.clang::LangOptionsBase", ptr %4, i32 0, i32 7
  %18 = load i64, ptr %17, align 8
  %19 = and i64 %18, 4294967295
  %20 = trunc i64 %19 to i32
  %21 = icmp eq i32 %20, 100
  br i1 %21, label %22, label %23

22:                                               ; preds = %16
  store i32 200, ptr %2, align 4
  br label %31

23:                                               ; preds = %16
  %24 = getelementptr inbounds nuw %"class.clang::LangOptionsBase", ptr %4, i32 0, i32 7
  %25 = load i64, ptr %24, align 8
  %26 = and i64 %25, 4294967295
  %27 = trunc i64 %26 to i32
  %28 = icmp eq i32 %27, 202100
  br i1 %28, label %29, label %30

29:                                               ; preds = %23
  store i32 300, ptr %2, align 4
  br label %31

30:                                               ; preds = %23
  unreachable

31:                                               ; preds = %29, %22, %11
  %32 = load i32, ptr %2, align 4
  ret i32 %32
}