; Function Attrs: mustprogress nofree norecurse nosync nounwind willreturn memory(argmem: read) uwtable
define dso_local noundef i32 @_ZNK5clang11LangOptions26getOpenCLCompatibleVersionEv(ptr nocapture noundef nonnull readonly align 8 dereferenceable(841) %0) local_unnamed_addr #3 align 2 {
  %2 = getelementptr inbounds nuw i8, ptr %0, i64 48
  %3 = load i64, ptr %2, align 8
  %4 = and i64 %3, 4294967296
  %.not = icmp eq i64 %4, 0
  %5 = trunc i64 %3 to i32
  %6 = getelementptr inbounds nuw i8, ptr %0, i64 56
  %7 = load i64, ptr %6, align 8
  %8 = and i64 %7, 4294967295
  %9 = icmp eq i64 %8, 100
  %spec.select = select i1 %9, i32 200, i32 300
  %.0 = select i1 %.not, i32 %5, i32 %spec.select
  ret i32 %.0
}